target datalayout = "e-m:e-p270:32:32-p271:32:32-p272:64:64-i64:64-i128:128-f80:128-n8:16:32:64-S128"
target triple = "x86_64-pc-linux-gnu"

%class.MutableNUMASpace = type { %class.MutableSpace, ptr, i64, i32, i32, i8, i64 }
%class.MutableSpace = type { ptr, %class.MemRegion, i64, ptr, ptr, ptr }
%class.MemRegion = type { ptr, i64 }
%class.GrowableArray = type { %class.GrowableArrayWithAllocator, %class.GrowableArrayMetadata }
%class.GrowableArrayWithAllocator = type { %class.GrowableArrayView }
%class.GrowableArrayView = type { %class.GrowableArrayBase, ptr }
%class.GrowableArrayBase = type { i32, i32 }
%class.GrowableArrayMetadata = type { i64 }
%"class.MutableNUMASpace::LGRPSpace" = type { i32, ptr, ptr, i8, %"struct.MutableNUMASpace::LGRPSpace::SpaceStats" }
%"struct.MutableNUMASpace::LGRPSpace::SpaceStats" = type { i64, i64, i64, i64 }

; Function Attrs: mustprogress nounwind uwtable
define linkonce_odr hidden void @_ZN17GrowableArrayBaseD2Ev(ptr noundef nonnull align 4 dereferenceable(8) %0) unnamed_addr #1 comdat align 2 {
  %2 = alloca ptr, align 8
  store ptr %0, ptr %2, align 8
  ret void
}

; Function Attrs: mustprogress nounwind uwtable
define linkonce_odr hidden void @_ZN17GrowableArrayViewIPN16MutableNUMASpace9LGRPSpaceEED2Ev(ptr noundef nonnull align 8 dereferenceable(16) %0) unnamed_addr #1 comdat align 2 {
  %2 = alloca ptr, align 8
  store ptr %0, ptr %2, align 8
  %3 = load ptr, ptr %2, align 8
  call void @_ZN17GrowableArrayBaseD2Ev(ptr noundef nonnull align 4 dereferenceable(8) %3) #7
  ret void
}

; Function Attrs: mustprogress nounwind uwtable
define linkonce_odr hidden void @_ZN17GrowableArrayBase5clearEv(ptr noundef nonnull align 4 dereferenceable(8) %0) #1 comdat align 2 {
  %2 = alloca ptr, align 8
  store ptr %0, ptr %2, align 8
  %3 = load ptr, ptr %2, align 8
  %4 = getelementptr inbounds %class.GrowableArrayBase, ptr %3, i32 0, i32 0
  store i32 0, ptr %4, align 4
  ret void
}

; Function Attrs: mustprogress nounwind uwtable
define linkonce_odr hidden noundef zeroext i1 @_ZNK21GrowableArrayMetadata9on_C_heapEv(ptr noundef nonnull align 8 dereferenceable(8) %0) #1 comdat align 2 {
  %2 = alloca ptr, align 8
  store ptr %0, ptr %2, align 8
  %3 = load ptr, ptr %2, align 8
  %4 = getelementptr inbounds %class.GrowableArrayMetadata, ptr %3, i32 0, i32 0
  %5 = load i64, ptr %4, align 8
  %6 = and i64 %5, 1
  %7 = icmp eq i64 %6, 1
  ret i1 %7
}

; Function Attrs: mustprogress nounwind uwtable
define linkonce_odr hidden void @_ZN26GrowableArrayWithAllocatorIPN16MutableNUMASpace9LGRPSpaceE13GrowableArrayIS2_EED2Ev(ptr noundef nonnull align 8 dereferenceable(16) %0) unnamed_addr #1 comdat align 2 {
  %2 = alloca ptr, align 8
  store ptr %0, ptr %2, align 8
  %3 = load ptr, ptr %2, align 8
  call void @_ZN17GrowableArrayViewIPN16MutableNUMASpace9LGRPSpaceEED2Ev(ptr noundef nonnull align 8 dereferenceable(16) %3) #7
  ret void
}

; Function Attrs: mustprogress nounwind uwtable
define linkonce_odr hidden void @_ZN26GrowableArrayWithAllocatorIPN16MutableNUMASpace9LGRPSpaceE13GrowableArrayIS2_EE20clear_and_deallocateEv(ptr noundef nonnull align 8 dereferenceable(16) %0) #1 comdat align 2 {
  %2 = alloca ptr, align 8
  store ptr %0, ptr %2, align 8
  %3 = load ptr, ptr %2, align 8
  call void @_ZN17GrowableArrayBase5clearEv(ptr noundef nonnull align 4 dereferenceable(8) %3)
  call void @_ZN26GrowableArrayWithAllocatorIPN16MutableNUMASpace9LGRPSpaceE13GrowableArrayIS2_EE13shrink_to_fitEv(ptr noundef nonnull align 8 dereferenceable(16) %3)
  ret void
}

; Function Attrs: mustprogress nounwind uwtable
define linkonce_odr hidden noundef zeroext i1 @_ZNK13GrowableArrayIPN16MutableNUMASpace9LGRPSpaceEE9on_C_heapEv(ptr noundef nonnull align 8 dereferenceable(24) %0) #1 comdat align 2 {
  %2 = alloca ptr, align 8
  store ptr %0, ptr %2, align 8
  %3 = load ptr, ptr %2, align 8
  %4 = getelementptr inbounds %class.GrowableArray, ptr %3, i32 0, i32 1
  %5 = call noundef zeroext i1 @_ZNK21GrowableArrayMetadata9on_C_heapEv(ptr noundef nonnull align 8 dereferenceable(8) %4)
  ret i1 %5
}

; Function Attrs: mustprogress nounwind uwtable
define linkonce_odr hidden void @_ZN12CHeapObjBasedlEPv(ptr noundef %0) #1 comdat align 2 {
  %2 = alloca ptr, align 8
  store ptr %0, ptr %2, align 8
  %3 = load ptr, ptr %2, align 8
  call void @_Z8FreeHeapPv(ptr noundef %3)
  ret void
}

; Function Attrs: mustprogress nounwind uwtable
define linkonce_odr hidden void @_ZN12MutableSpaceD2Ev(ptr noundef nonnull align 8 dereferenceable(56) %0) unnamed_addr #1 comdat align 2 {
  %2 = alloca ptr, align 8
  store ptr %0, ptr %2, align 8
  ret void
}

; Function Attrs: mustprogress nounwind uwtable
define linkonce_odr hidden void @_ZN13GrowableArrayIPN16MutableNUMASpace9LGRPSpaceEED2Ev(ptr noundef nonnull align 8 dereferenceable(24) %0) unnamed_addr #1 comdat align 2 {
  %2 = alloca ptr, align 8
  store ptr %0, ptr %2, align 8
  %3 = load ptr, ptr %2, align 8
  %4 = call noundef zeroext i1 @_ZNK13GrowableArrayIPN16MutableNUMASpace9LGRPSpaceEE9on_C_heapEv(ptr noundef nonnull align 8 dereferenceable(24) %3)
  br i1 %4, label %5, label %6

5:                                                ; preds = %1
  call void @_ZN26GrowableArrayWithAllocatorIPN16MutableNUMASpace9LGRPSpaceE13GrowableArrayIS2_EE20clear_and_deallocateEv(ptr noundef nonnull align 8 dereferenceable(16) %3)
  br label %6

6:                                                ; preds = %5, %1
  call void @_ZN26GrowableArrayWithAllocatorIPN16MutableNUMASpace9LGRPSpaceE13GrowableArrayIS2_EED2Ev(ptr noundef nonnull align 8 dereferenceable(16) %3) #7
  ret void
}

; Function Attrs: mustprogress nounwind uwtable
define linkonce_odr hidden void @_ZN8CHeapObjIL8MEMFLAGS5EEdlEPv(ptr noundef %0) #1 comdat align 2 {
  %2 = alloca ptr, align 8
  store ptr %0, ptr %2, align 8
  %3 = load ptr, ptr %2, align 8
  call void @_ZN12CHeapObjBasedlEPv(ptr noundef %3) #7
  ret void
}

; Function Attrs: mustprogress nounwind uwtable
define linkonce_odr hidden void @_ZN16MutableNUMASpace9LGRPSpaceD2Ev(ptr noundef nonnull align 8 dereferenceable(64) %0) unnamed_addr #1 comdat align 2 {
  %2 = alloca ptr, align 8
  store ptr %0, ptr %2, align 8
  %3 = load ptr, ptr %2, align 8
  %4 = getelementptr inbounds %"class.MutableNUMASpace::LGRPSpace", ptr %3, i32 0, i32 1
  %5 = load ptr, ptr %4, align 8
  %6 = icmp eq ptr %5, null
  br i1 %6, label %11, label %7

7:                                                ; preds = %1
  %8 = load ptr, ptr %5, align 8
  %9 = getelementptr inbounds ptr, ptr %8, i64 1
  %10 = load ptr, ptr %9, align 8
  call void %10(ptr noundef nonnull align 8 dereferenceable(56) %5) #7
  br label %11

11:                                               ; preds = %7, %1
  %12 = getelementptr inbounds %"class.MutableNUMASpace::LGRPSpace", ptr %3, i32 0, i32 2
  %13 = load ptr, ptr %12, align 8
  %14 = icmp eq ptr %13, null
  br i1 %14, label %16, label %15

15:                                               ; preds = %11
  call void @_ZN8CHeapObjIL8MEMFLAGS5EEdlEPv(ptr noundef %13) #7
  br label %16

16:                                               ; preds = %15, %11
  ret void
}

; Function Attrs: mustprogress nounwind uwtable
define linkonce_odr hidden noundef nonnull align 8 dereferenceable(8) ptr @_ZN17GrowableArrayViewIPN16MutableNUMASpace9LGRPSpaceEE2atEi(ptr noundef nonnull align 8 dereferenceable(16) %0, i32 noundef %1) #1 comdat align 2 {
  %3 = alloca ptr, align 8
  %4 = alloca i32, align 4
  store ptr %0, ptr %3, align 8
  store i32 %1, ptr %4, align 4
  %5 = load ptr, ptr %3, align 8
  %6 = getelementptr inbounds %class.GrowableArrayView, ptr %5, i32 0, i32 1
  %7 = load ptr, ptr %6, align 8
  %8 = load i32, ptr %4, align 4
  %9 = sext i32 %8 to i64
  %10 = getelementptr inbounds ptr, ptr %7, i64 %9
  ret ptr %10
}

; Function Attrs: mustprogress nounwind uwtable
define linkonce_odr hidden noundef i32 @_ZNK17GrowableArrayBase6lengthEv(ptr noundef nonnull align 4 dereferenceable(8) %0) #1 comdat align 2 {
  %2 = alloca ptr, align 8
  store ptr %0, ptr %2, align 8
  %3 = load ptr, ptr %2, align 8
  %4 = getelementptr inbounds %class.GrowableArrayBase, ptr %3, i32 0, i32 0
  %5 = load i32, ptr %4, align 4
  ret i32 %5
}

; Function Attrs: mustprogress nounwind uwtable
define linkonce_odr hidden noundef ptr @_ZNK16MutableNUMASpace11lgrp_spacesEv(ptr noundef nonnull align 8 dereferenceable(96) %0) #1 comdat align 2 {
  %2 = alloca ptr, align 8
  store ptr %0, ptr %2, align 8
  %3 = load ptr, ptr %2, align 8
  %4 = getelementptr inbounds %class.MutableNUMASpace, ptr %3, i32 0, i32 1
  %5 = load ptr, ptr %4, align 8
  ret ptr %5
}

; Function Attrs: mustprogress nounwind uwtable
define hidden void @_ZN16MutableNUMASpaceD2Ev(ptr noundef nonnull align 8 dereferenceable(96) %0) unnamed_addr #1 align 2 {
  %2 = alloca ptr, align 8
  %3 = alloca i32, align 4
  store ptr %0, ptr %2, align 8
  %4 = load ptr, ptr %2, align 8
  store ptr getelementptr inbounds inrange(-16, 168) ({ [23 x ptr] }, ptr @_ZTV16MutableNUMASpace, i32 0, i32 0, i32 2), ptr %4, align 8
  store i32 0, ptr %3, align 4
  br label %5

5:                                                ; preds = %18, %1
  %6 = load i32, ptr %3, align 4
  %7 = call noundef ptr @_ZNK16MutableNUMASpace11lgrp_spacesEv(ptr noundef nonnull align 8 dereferenceable(96) %4)
  %8 = call noundef i32 @_ZNK17GrowableArrayBase6lengthEv(ptr noundef nonnull align 4 dereferenceable(8) %7)
  %9 = icmp slt i32 %6, %8
  br i1 %9, label %10, label %21

10:                                               ; preds = %5
  %11 = call noundef ptr @_ZNK16MutableNUMASpace11lgrp_spacesEv(ptr noundef nonnull align 8 dereferenceable(96) %4)
  %12 = load i32, ptr %3, align 4
  %13 = call noundef nonnull align 8 dereferenceable(8) ptr @_ZN17GrowableArrayViewIPN16MutableNUMASpace9LGRPSpaceEE2atEi(ptr noundef nonnull align 8 dereferenceable(16) %11, i32 noundef %12)
  %14 = load ptr, ptr %13, align 8
  %15 = icmp eq ptr %14, null
  br i1 %15, label %17, label %16

16:                                               ; preds = %10
  call void @_ZN16MutableNUMASpace9LGRPSpaceD2Ev(ptr noundef nonnull align 8 dereferenceable(64) %14) #7
  call void @_ZN8CHeapObjIL8MEMFLAGS5EEdlEPv(ptr noundef %14) #7
  br label %17

17:                                               ; preds = %16, %10
  br label %18

18:                                               ; preds = %17
  %19 = load i32, ptr %3, align 4
  %20 = add nsw i32 %19, 1
  store i32 %20, ptr %3, align 4
  br label %5, !llvm.loop !8

21:                                               ; preds = %5
  %22 = call noundef ptr @_ZNK16MutableNUMASpace11lgrp_spacesEv(ptr noundef nonnull align 8 dereferenceable(96) %4)
  %23 = icmp eq ptr %22, null
  br i1 %23, label %25, label %24

24:                                               ; preds = %21
  call void @_ZN13GrowableArrayIPN16MutableNUMASpace9LGRPSpaceEED2Ev(ptr noundef nonnull align 8 dereferenceable(24) %22) #7
  call void @_ZN6AnyObjdlEPv(ptr noundef %22) #7
  br label %25

25:                                               ; preds = %24, %21
  call void @_ZN12MutableSpaceD2Ev(ptr noundef nonnull align 8 dereferenceable(56) %4) #7
  ret void
}