; Function Attrs: mustprogress nounwind uwtable
define hidden void @_ZN16MutableNUMASpaceD2Ev(ptr nocapture noundef nonnull align 8 dereferenceable(96) %0) unnamed_addr #0 align 2 {
  store ptr getelementptr inbounds inrange(-16, 168) (i8, ptr @_ZTV16MutableNUMASpace, i64 16), ptr %0, align 8
  %2 = getelementptr inbounds i8, ptr %0, i64 56
  %3 = load ptr, ptr %2, align 8
  %4 = load i32, ptr %3, align 4
  %5 = icmp sgt i32 %4, 0
  br i1 %5, label %.lr.ph, label %._crit_edge

.lr.ph:                                           ; preds = %1, %26
  %6 = phi i32 [ %27, %26 ], [ %4, %1 ]
  %7 = phi ptr [ %28, %26 ], [ %3, %1 ]
  %indvars.iv = phi i64 [ %indvars.iv.next, %26 ], [ 0, %1 ]
  %8 = getelementptr inbounds i8, ptr %7, i64 8
  %9 = load ptr, ptr %8, align 8
  %10 = getelementptr inbounds ptr, ptr %9, i64 %indvars.iv
  %11 = load ptr, ptr %10, align 8
  %12 = icmp eq ptr %11, null
  br i1 %12, label %26, label %13

13:                                               ; preds = %.lr.ph
  %14 = getelementptr inbounds i8, ptr %11, i64 8
  %15 = load ptr, ptr %14, align 8
  %16 = icmp eq ptr %15, null
  br i1 %16, label %21, label %17

17:                                               ; preds = %13
  %18 = load ptr, ptr %15, align 8
  %19 = getelementptr inbounds i8, ptr %18, i64 8
  %20 = load ptr, ptr %19, align 8
  tail call void %20(ptr noundef nonnull align 8 dereferenceable(56) %15) #11
  br label %21

21:                                               ; preds = %17, %13
  %22 = getelementptr inbounds i8, ptr %11, i64 16
  %23 = load ptr, ptr %22, align 8
  %24 = icmp eq ptr %23, null
  br i1 %24, label %_ZN16MutableNUMASpace9LGRPSpaceD2Ev.exit, label %25

25:                                               ; preds = %21
  tail call void @_Z8FreeHeapPv(ptr noundef nonnull %23) #11
  br label %_ZN16MutableNUMASpace9LGRPSpaceD2Ev.exit

_ZN16MutableNUMASpace9LGRPSpaceD2Ev.exit:         ; preds = %21, %25
  tail call void @_Z8FreeHeapPv(ptr noundef nonnull %11) #11
  %.pre = load ptr, ptr %2, align 8
  %.pre8 = load i32, ptr %.pre, align 4
  br label %26

26:                                               ; preds = %.lr.ph, %_ZN16MutableNUMASpace9LGRPSpaceD2Ev.exit
  %27 = phi i32 [ %6, %.lr.ph ], [ %.pre8, %_ZN16MutableNUMASpace9LGRPSpaceD2Ev.exit ]
  %28 = phi ptr [ %7, %.lr.ph ], [ %.pre, %_ZN16MutableNUMASpace9LGRPSpaceD2Ev.exit ]
  %indvars.iv.next = add nuw nsw i64 %indvars.iv, 1
  %29 = sext i32 %27 to i64
  %30 = icmp slt i64 %indvars.iv.next, %29
  br i1 %30, label %.lr.ph, label %._crit_edge, !llvm.loop !8

._crit_edge:                                      ; preds = %26, %1
  %.lcssa = phi ptr [ %3, %1 ], [ %28, %26 ]
  %31 = getelementptr inbounds i8, ptr %.lcssa, i64 16
  %32 = load i64, ptr %31, align 8
  %33 = and i64 %32, 1
  %.not.i = icmp eq i64 %33, 0
  br i1 %.not.i, label %35, label %34

34:                                               ; preds = %._crit_edge
  store i32 0, ptr %.lcssa, align 4
  tail call void @_ZN26GrowableArrayWithAllocatorIPN16MutableNUMASpace9LGRPSpaceE13GrowableArrayIS2_EE13shrink_to_fitEv(ptr noundef nonnull align 8 dereferenceable(16) %.lcssa)
  br label %35

35:                                               ; preds = %34, %._crit_edge
  tail call void @_ZN6AnyObjdlEPv(ptr noundef nonnull %.lcssa) #11
  ret void
}